; Function Attrs: mustprogress nofree norecurse nosync nounwind willreturn memory(argmem: read) uwtable
define hidden noundef i64 @_ZNK6hermes2vm7HadesGC13externalBytesEv(ptr nocapture noundef nonnull readonly align 8 dereferenceable(8152) %this) local_unnamed_addr #8 align 2 {
entry:
  %ygExternalBytes_.i = getelementptr inbounds i8, ptr %this, i64 8080
  %0 = load i64, ptr %ygExternalBytes_.i, align 8
  %externalBytes_.i = getelementptr inbounds i8, ptr %this, i64 984
  %1 = load i64, ptr %externalBytes_.i, align 8
  %add = add i64 %1, %0
  ret i64 %add
}